(lp0
(S'cppflags'
p1
ccopy_reg
_reconstructor
p2
(cino.utils
SpaceList
p3
c__builtin__
list
p4
(lp5
S'-mmcu=atmega328p'
p6
aS'-DF_CPU=16000000L'
p7
aS'-DARDUINO=105'
p8
aS'-I/usr/share/arduino/hardware/arduino/cores/arduino'
p9
aS'-ffunction-sections'
p10
aS'-fdata-sections'
p11
aS'-g'
p12
aS'-Os'
p13
aS'-w'
p14
aS'-I/usr/share/arduino/hardware/arduino/variants/standard'
p15
aS'-I/usr/share/arduino/libraries/Servo'
p16
aS'-I/usr/share/arduino/libraries/EEPROM'
p17
aS'-I/usr/share/arduino/libraries/LiquidCrystal'
p18
aS'-Ilib/DHT22'
p19
aS'-I/usr/share/arduino/hardware/arduino/cores/arduino'
p20
aS'-I/usr/share/arduino/hardware/arduino/cores/arduino/avr-libc'
p21
atp22
Rp23
tp24
a(S'cxx'
p25
S'/usr/bin/avr-g++'
p26
tp27
a(S'build_dir'
p28
S'.build/uno'
p29
tp30
a(S'avrdude'
p31
S'/usr/bin/avrdude'
p32
tp33
a(S'ar'
p34
S'/usr/bin/avr-ar'
p35
tp36
a(S'names'
p37
(dp38
S'cpp'
p39
S'%s.cpp'
p40
sS'obj'
p41
S'%s.o'
p42
sS'deps'
p43
S'%s.d'
p44
sS'lib'
p45
S'lib%s.a'
p46
stp47
a(S'ldflags'
p48
g2
(g3
g4
(lp49
g6
aS'-Wl,-Os'
p50
aS'-Wl,--gc-sections'
p51
atp52
Rp53
tp54
a(S'arduino_lib_version'
p55
g2
(cino.environment
Version
p56
c__builtin__
tuple
p57
(I1
I0
I5
tp58
tp59
Rp60
tp61
a(S'objcopy'
p62
S'/usr/bin/avr-objcopy'
p63
tp64
a(S'board_models'
p65
cino.environment
BoardModels
p66
((lp67
(lp68
S'uno'
p69
a(dp70
S'bootloader'
p71
(dp72
S'extended_fuses'
p73
S'0x05'
p74
sS'high_fuses'
p75
S'0xde'
p76
sS'low_fuses'
p77
S'0xff'
p78
sS'lock_bits'
p79
S'0x0F'
p80
sS'file'
p81
S'optiboot_atmega328.hex'
p82
sS'path'
p83
S'optiboot'
p84
sS'unlock_bits'
p85
S'0x3F'
p86
ssS'upload'
p87
(dp88
S'protocol'
p89
S'arduino'
p90
sS'maximum_size'
p91
S'32256'
p92
sS'speed'
p93
S'115200'
p94
ssS'build'
p95
(dp96
S'core'
p97
S'arduino'
p98
sS'mcu'
p99
S'atmega328p'
p100
sS'cppoption1'
p101
S'-fno-use-cxa-atexit'
p102
sS'f_cpu'
p103
S'16000000L'
p104
sS'variant'
p105
S'standard'
p106
ssS'name'
p107
S'Arduino Uno'
p108
saa(lp109
S'atmega328'
p110
a(dp111
S'bootloader'
p112
(dp113
S'extended_fuses'
p114
S'0x05'
p115
sS'high_fuses'
p116
S'0xDA'
p117
sS'low_fuses'
p118
S'0xFF'
p119
sS'lock_bits'
p120
S'0x0F'
p121
sS'file'
p122
S'ATmegaBOOT_168_atmega328.hex'
p123
sS'path'
p124
S'atmega'
p125
sS'unlock_bits'
p126
S'0x3F'
p127
ssS'upload'
p128
(dp129
S'protocol'
p130
S'arduino'
p131
sS'maximum_size'
p132
S'30720'
p133
sS'speed'
p134
S'57600'
p135
ssS'build'
p136
(dp137
S'core'
p138
S'arduino'
p139
sS'mcu'
p140
S'atmega328p'
p141
sS'cppoption1'
p142
S'-fno-use-cxa-atexit'
p143
sS'f_cpu'
p144
S'16000000L'
p145
sS'variant'
p146
S'standard'
p147
ssS'name'
p148
S'Arduino Duemilanove w/ ATmega328'
p149
saa(lp150
S'diecimila'
p151
a(dp152
S'bootloader'
p153
(dp154
S'extended_fuses'
p155
S'0x00'
p156
sS'high_fuses'
p157
S'0xdd'
p158
sS'low_fuses'
p159
S'0xff'
p160
sS'lock_bits'
p161
S'0x0F'
p162
sS'file'
p163
S'ATmegaBOOT_168_diecimila.hex'
p164
sS'path'
p165
S'atmega'
p166
sS'unlock_bits'
p167
S'0x3F'
p168
ssS'upload'
p169
(dp170
S'protocol'
p171
S'arduino'
p172
sS'maximum_size'
p173
S'14336'
p174
sS'speed'
p175
S'19200'
p176
ssS'build'
p177
(dp178
S'core'
p179
S'arduino'
p180
sS'mcu'
p181
S'atmega168'
p182
sS'cppoption1'
p183
S'-fno-use-cxa-atexit'
p184
sS'f_cpu'
p185
S'16000000L'
p186
sS'variant'
p187
S'standard'
p188
ssS'name'
p189
S'Arduino Diecimila or Duemilanove w/ ATmega168'
p190
saa(lp191
S'nano328'
p192
a(dp193
S'bootloader'
p194
(dp195
S'extended_fuses'
p196
S'0x05'
p197
sS'high_fuses'
p198
S'0xDA'
p199
sS'low_fuses'
p200
S'0xFF'
p201
sS'lock_bits'
p202
S'0x0F'
p203
sS'file'
p204
S'ATmegaBOOT_168_atmega328.hex'
p205
sS'path'
p206
S'atmega'
p207
sS'unlock_bits'
p208
S'0x3F'
p209
ssS'upload'
p210
(dp211
S'protocol'
p212
S'arduino'
p213
sS'maximum_size'
p214
S'30720'
p215
sS'speed'
p216
S'57600'
p217
ssS'build'
p218
(dp219
S'core'
p220
S'arduino'
p221
sS'mcu'
p222
S'atmega328p'
p223
sS'cppoption1'
p224
S'-fno-use-cxa-atexit'
p225
sS'f_cpu'
p226
S'16000000L'
p227
sS'variant'
p228
S'eightanaloginputs'
p229
ssS'name'
p230
S'Arduino Nano w/ ATmega328'
p231
saa(lp232
S'nano'
p233
a(dp234
S'bootloader'
p235
(dp236
S'extended_fuses'
p237
S'0x00'
p238
sS'high_fuses'
p239
S'0xdd'
p240
sS'low_fuses'
p241
S'0xff'
p242
sS'lock_bits'
p243
S'0x0F'
p244
sS'file'
p245
S'ATmegaBOOT_168_diecimila.hex'
p246
sS'path'
p247
S'atmega'
p248
sS'unlock_bits'
p249
S'0x3F'
p250
ssS'upload'
p251
(dp252
S'protocol'
p253
S'arduino'
p254
sS'maximum_size'
p255
S'14336'
p256
sS'speed'
p257
S'19200'
p258
ssS'build'
p259
(dp260
S'core'
p261
S'arduino'
p262
sS'mcu'
p263
S'atmega168'
p264
sS'cppoption1'
p265
S'-fno-use-cxa-atexit'
p266
sS'f_cpu'
p267
S'16000000L'
p268
sS'variant'
p269
S'eightanaloginputs'
p270
ssS'name'
p271
S'Arduino Nano w/ ATmega168'
p272
saa(lp273
S'mega2560'
p274
a(dp275
S'bootloader'
p276
(dp277
S'extended_fuses'
p278
S'0xFD'
p279
sS'high_fuses'
p280
S'0xD8'
p281
sS'low_fuses'
p282
S'0xFF'
p283
sS'lock_bits'
p284
S'0x0F'
p285
sS'file'
p286
S'stk500boot_v2_mega2560.hex'
p287
sS'path'
p288
S'stk500v2'
p289
sS'unlock_bits'
p290
S'0x3F'
p291
ssS'upload'
p292
(dp293
S'protocol'
p294
S'wiring'
p295
sS'maximum_size'
p296
S'258048'
p297
sS'speed'
p298
S'115200'
p299
ssS'build'
p300
(dp301
S'core'
p302
S'arduino'
p303
sS'mcu'
p304
S'atmega2560'
p305
sS'cppoption1'
p306
S'-fno-use-cxa-atexit'
p307
sS'f_cpu'
p308
S'16000000L'
p309
sS'variant'
p310
S'mega'
p311
ssS'name'
p312
S'Arduino Mega 2560 or Mega ADK'
p313
saa(lp314
S'mega'
p315
a(dp316
S'bootloader'
p317
(dp318
S'extended_fuses'
p319
S'0xF5'
p320
sS'high_fuses'
p321
S'0xDA'
p322
sS'low_fuses'
p323
S'0xFF'
p324
sS'lock_bits'
p325
S'0x0F'
p326
sS'file'
p327
S'ATmegaBOOT_168_atmega1280.hex'
p328
sS'path'
p329
S'atmega'
p330
sS'unlock_bits'
p331
S'0x3F'
p332
ssS'upload'
p333
(dp334
S'protocol'
p335
S'arduino'
p336
sS'maximum_size'
p337
S'126976'
p338
sS'speed'
p339
S'57600'
p340
ssS'build'
p341
(dp342
S'core'
p343
S'arduino'
p344
sS'mcu'
p345
S'atmega1280'
p346
sS'cppoption1'
p347
S'-fno-use-cxa-atexit'
p348
sS'f_cpu'
p349
S'16000000L'
p350
sS'variant'
p351
S'mega'
p352
ssS'name'
p353
S'Arduino Mega (ATmega1280)'
p354
saa(lp355
S'leonardo'
p356
a(dp357
S'bootloader'
p358
(dp359
S'extended_fuses'
p360
S'0xcb'
p361
sS'high_fuses'
p362
S'0xd8'
p363
sS'low_fuses'
p364
S'0xff'
p365
sS'lock_bits'
p366
S'0x2F'
p367
sS'file'
p368
S'Caterina-Leonardo.hex'
p369
sS'path'
p370
S'caterina'
p371
sS'unlock_bits'
p372
S'0x3F'
p373
ssS'upload'
p374
(dp375
S'protocol'
p376
S'avr109'
p377
sS'maximum_size'
p378
S'28672'
p379
sS'speed'
p380
S'57600'
p381
sS'disable_flushing'
p382
S'true'
p383
ssS'build'
p384
(dp385
S'core'
p386
S'arduino'
p387
sS'f_cpu'
p388
S'16000000L'
p389
sS'vid'
p390
S'0x2341'
p391
sS'pid'
p392
S'0x8036'
p393
sS'cppoption1'
p394
S'-fno-use-cxa-atexit'
p395
sS'variant'
p396
S'leonardo'
p397
sS'mcu'
p398
S'atmega32u4'
p399
ssS'name'
p400
S'Arduino Leonardo'
p401
saa(lp402
S'esplora'
p403
a(dp404
S'bootloader'
p405
(dp406
S'extended_fuses'
p407
S'0xcb'
p408
sS'high_fuses'
p409
S'0xd8'
p410
sS'low_fuses'
p411
S'0xff'
p412
sS'lock_bits'
p413
S'0x2F'
p414
sS'file'
p415
S'Caterina-Esplora.hex'
p416
sS'path'
p417
S'caterina'
p418
sS'unlock_bits'
p419
S'0x3F'
p420
ssS'upload'
p421
(dp422
S'protocol'
p423
S'avr109'
p424
sS'maximum_size'
p425
S'28672'
p426
sS'speed'
p427
S'57600'
p428
sS'disable_flushing'
p429
S'true'
p430
ssS'build'
p431
(dp432
S'core'
p433
S'arduino'
p434
sS'f_cpu'
p435
S'16000000L'
p436
sS'vid'
p437
S'0x2341'
p438
sS'pid'
p439
S'0x803C'
p440
sS'cppoption1'
p441
S'-fno-use-cxa-atexit'
p442
sS'variant'
p443
S'leonardo'
p444
sS'mcu'
p445
S'atmega32u4'
p446
ssS'name'
p447
S'Arduino Esplora'
p448
saa(lp449
S'micro'
p450
a(dp451
S'bootloader'
p452
(dp453
S'extended_fuses'
p454
S'0xcb'
p455
sS'high_fuses'
p456
S'0xd8'
p457
sS'low_fuses'
p458
S'0xff'
p459
sS'lock_bits'
p460
S'0x2F'
p461
sS'file'
p462
S'Caterina-Micro.hex'
p463
sS'path'
p464
S'caterina'
p465
sS'unlock_bits'
p466
S'0x3F'
p467
ssS'upload'
p468
(dp469
S'protocol'
p470
S'avr109'
p471
sS'maximum_size'
p472
S'28672'
p473
sS'speed'
p474
S'57600'
p475
sS'disable_flushing'
p476
S'true'
p477
ssS'build'
p478
(dp479
S'core'
p480
S'arduino'
p481
sS'f_cpu'
p482
S'16000000L'
p483
sS'vid'
p484
S'0x2341'
p485
sS'pid'
p486
S'0x8037'
p487
sS'cppoption1'
p488
S'-fno-use-cxa-atexit'
p489
sS'variant'
p490
S'micro'
p491
sS'mcu'
p492
S'atmega32u4'
p493
ssS'name'
p494
S'Arduino Micro'
p495
saa(lp496
S'mini328'
p497
a(dp498
S'bootloader'
p499
(dp500
S'extended_fuses'
p501
S'0x05'
p502
sS'high_fuses'
p503
S'0xd8'
p504
sS'low_fuses'
p505
S'0xff'
p506
sS'lock_bits'
p507
S'0x0F'
p508
sS'file'
p509
S'optiboot_atmega328-Mini.hex'
p510
sS'path'
p511
S'optiboot'
p512
sS'unlock_bits'
p513
S'0x3F'
p514
ssS'upload'
p515
(dp516
S'protocol'
p517
S'arduino'
p518
sS'maximum_size'
p519
S'28672'
p520
sS'speed'
p521
S'115200'
p522
ssS'build'
p523
(dp524
S'core'
p525
S'arduino'
p526
sS'mcu'
p527
S'atmega328p'
p528
sS'cppoption1'
p529
S'-fno-use-cxa-atexit'
p530
sS'f_cpu'
p531
S'16000000L'
p532
sS'variant'
p533
S'eightanaloginputs'
p534
ssS'name'
p535
S'Arduino Mini w/ ATmega328'
p536
saa(lp537
S'mini'
p538
a(dp539
S'bootloader'
p540
(dp541
S'extended_fuses'
p542
S'0x00'
p543
sS'high_fuses'
p544
S'0xdd'
p545
sS'low_fuses'
p546
S'0xff'
p547
sS'lock_bits'
p548
S'0x0F'
p549
sS'file'
p550
S'ATmegaBOOT_168_ng.hex'
p551
sS'path'
p552
S'atmega'
p553
sS'unlock_bits'
p554
S'0x3F'
p555
ssS'upload'
p556
(dp557
S'protocol'
p558
S'arduino'
p559
sS'maximum_size'
p560
S'14336'
p561
sS'speed'
p562
S'19200'
p563
ssS'build'
p564
(dp565
S'core'
p566
S'arduino'
p567
sS'mcu'
p568
S'atmega168'
p569
sS'cppoption1'
p570
S'-fno-use-cxa-atexit'
p571
sS'f_cpu'
p572
S'16000000L'
p573
sS'variant'
p574
S'eightanaloginputs'
p575
ssS'name'
p576
S'Arduino Mini w/ ATmega168'
p577
saa(lp578
S'ethernet'
p579
a(dp580
S'bootloader'
p581
(dp582
S'extended_fuses'
p583
S'0x05'
p584
sS'high_fuses'
p585
S'0xde'
p586
sS'low_fuses'
p587
S'0xff'
p588
sS'lock_bits'
p589
S'0x0F'
p590
sS'file'
p591
S'optiboot_atmega328.hex'
p592
sS'path'
p593
S'optiboot'
p594
sS'unlock_bits'
p595
S'0x3F'
p596
ssS'upload'
p597
(dp598
S'protocol'
p599
S'arduino'
p600
sS'maximum_size'
p601
S'32256'
p602
sS'speed'
p603
S'115200'
p604
ssS'build'
p605
(dp606
S'variant'
p607
S'standard'
p608
sS'mcu'
p609
S'atmega328p'
p610
sS'cppoption1'
p611
S'-fno-use-cxa-atexit'
p612
sS'f_cpu'
p613
S'16000000L'
p614
sS'core'
p615
S'arduino'
p616
ssS'name'
p617
S'Arduino Ethernet'
p618
saa(lp619
S'fio'
p620
a(dp621
S'bootloader'
p622
(dp623
S'extended_fuses'
p624
S'0x05'
p625
sS'high_fuses'
p626
S'0xDA'
p627
sS'low_fuses'
p628
S'0xFF'
p629
sS'lock_bits'
p630
S'0x0F'
p631
sS'file'
p632
S'ATmegaBOOT_168_atmega328_pro_8MHz.hex'
p633
sS'path'
p634
S'arduino:atmega'
p635
sS'unlock_bits'
p636
S'0x3F'
p637
ssS'upload'
p638
(dp639
S'protocol'
p640
S'arduino'
p641
sS'maximum_size'
p642
S'30720'
p643
sS'speed'
p644
S'57600'
p645
ssS'build'
p646
(dp647
S'core'
p648
S'arduino'
p649
sS'mcu'
p650
S'atmega328p'
p651
sS'cppoption1'
p652
S'-fno-use-cxa-atexit'
p653
sS'f_cpu'
p654
S'8000000L'
p655
sS'variant'
p656
S'eightanaloginputs'
p657
ssS'name'
p658
S'Arduino Fio'
p659
saa(lp660
S'bt328'
p661
a(dp662
S'bootloader'
p663
(dp664
S'extended_fuses'
p665
S'0x05'
p666
sS'high_fuses'
p667
S'0xd8'
p668
sS'low_fuses'
p669
S'0xff'
p670
sS'lock_bits'
p671
S'0x0F'
p672
sS'file'
p673
S'ATmegaBOOT_168_atmega328_bt.hex'
p674
sS'path'
p675
S'bt'
p676
sS'unlock_bits'
p677
S'0x3F'
p678
ssS'upload'
p679
(dp680
S'protocol'
p681
S'arduino'
p682
sS'maximum_size'
p683
S'28672'
p684
sS'speed'
p685
S'19200'
p686
sS'disable_flushing'
p687
S'true'
p688
ssS'build'
p689
(dp690
S'core'
p691
S'arduino'
p692
sS'mcu'
p693
S'atmega328p'
p694
sS'cppoption1'
p695
S'-fno-use-cxa-atexit'
p696
sS'f_cpu'
p697
S'16000000L'
p698
sS'variant'
p699
S'eightanaloginputs'
p700
ssS'name'
p701
S'Arduino BT w/ ATmega328'
p702
saa(lp703
S'bt'
p704
a(dp705
S'bootloader'
p706
(dp707
S'extended_fuses'
p708
S'0x00'
p709
sS'high_fuses'
p710
S'0xdd'
p711
sS'low_fuses'
p712
S'0xff'
p713
sS'lock_bits'
p714
S'0x0F'
p715
sS'file'
p716
S'ATmegaBOOT_168.hex'
p717
sS'path'
p718
S'bt'
p719
sS'unlock_bits'
p720
S'0x3F'
p721
ssS'upload'
p722
(dp723
S'protocol'
p724
S'arduino'
p725
sS'maximum_size'
p726
S'14336'
p727
sS'speed'
p728
S'19200'
p729
sS'disable_flushing'
p730
S'true'
p731
ssS'build'
p732
(dp733
S'core'
p734
S'arduino'
p735
sS'mcu'
p736
S'atmega168'
p737
sS'cppoption1'
p738
S'-fno-use-cxa-atexit'
p739
sS'f_cpu'
p740
S'16000000L'
p741
sS'variant'
p742
S'eightanaloginputs'
p743
ssS'name'
p744
S'Arduino BT w/ ATmega168'
p745
saa(lp746
S'LilyPadUSB'
p747
a(dp748
S'bootloader'
p749
(dp750
S'extended_fuses'
p751
S'0xce'
p752
sS'high_fuses'
p753
S'0xd8'
p754
sS'low_fuses'
p755
S'0xff'
p756
sS'lock_bits'
p757
S'0x2F'
p758
sS'file'
p759
S'Caterina-LilyPadUSB.hex'
p760
sS'path'
p761
S'caterina-LilyPadUSB'
p762
sS'unlock_bits'
p763
S'0x3F'
p764
ssS'upload'
p765
(dp766
S'protocol'
p767
S'avr109'
p768
sS'maximum_size'
p769
S'28672'
p770
sS'speed'
p771
S'57600'
p772
sS'disable_flushing'
p773
S'true'
p774
ssS'build'
p775
(dp776
S'core'
p777
S'arduino'
p778
sS'f_cpu'
p779
S'8000000L'
p780
sS'vid'
p781
S'0x1B4F'
p782
sS'pid'
p783
S'0x9208'
p784
sS'cppoption1'
p785
S'-fno-use-cxa-atexit'
p786
sS'variant'
p787
S'leonardo'
p788
sS'mcu'
p789
S'atmega32u4'
p790
ssS'name'
p791
S'LilyPad Arduino USB'
p792
saa(lp793
S'lilypad328'
p794
a(dp795
S'bootloader'
p796
(dp797
S'extended_fuses'
p798
S'0x05'
p799
sS'high_fuses'
p800
S'0xDA'
p801
sS'low_fuses'
p802
S'0xFF'
p803
sS'lock_bits'
p804
S'0x0F'
p805
sS'file'
p806
S'ATmegaBOOT_168_atmega328_pro_8MHz.hex'
p807
sS'path'
p808
S'atmega'
p809
sS'unlock_bits'
p810
S'0x3F'
p811
ssS'upload'
p812
(dp813
S'protocol'
p814
S'arduino'
p815
sS'maximum_size'
p816
S'30720'
p817
sS'speed'
p818
S'57600'
p819
ssS'build'
p820
(dp821
S'core'
p822
S'arduino'
p823
sS'mcu'
p824
S'atmega328p'
p825
sS'cppoption1'
p826
S'-fno-use-cxa-atexit'
p827
sS'f_cpu'
p828
S'8000000L'
p829
sS'variant'
p830
S'standard'
p831
ssS'name'
p832
S'LilyPad Arduino w/ ATmega328'
p833
saa(lp834
S'lilypad'
p835
a(dp836
S'bootloader'
p837
(dp838
S'extended_fuses'
p839
S'0x00'
p840
sS'high_fuses'
p841
S'0xdd'
p842
sS'low_fuses'
p843
S'0xe2'
p844
sS'lock_bits'
p845
S'0x0F'
p846
sS'file'
p847
S'LilyPadBOOT_168.hex'
p848
sS'path'
p849
S'lilypad'
p850
sS'unlock_bits'
p851
S'0x3F'
p852
ssS'upload'
p853
(dp854
S'protocol'
p855
S'arduino'
p856
sS'maximum_size'
p857
S'14336'
p858
sS'speed'
p859
S'19200'
p860
ssS'build'
p861
(dp862
S'core'
p863
S'arduino'
p864
sS'mcu'
p865
S'atmega168'
p866
sS'cppoption1'
p867
S'-fno-use-cxa-atexit'
p868
sS'f_cpu'
p869
S'8000000L'
p870
sS'variant'
p871
S'standard'
p872
ssS'name'
p873
S'LilyPad Arduino w/ ATmega168'
p874
saa(lp875
S'pro5v328'
p876
a(dp877
S'bootloader'
p878
(dp879
S'extended_fuses'
p880
S'0x05'
p881
sS'high_fuses'
p882
S'0xDA'
p883
sS'low_fuses'
p884
S'0xFF'
p885
sS'lock_bits'
p886
S'0x0F'
p887
sS'file'
p888
S'ATmegaBOOT_168_atmega328.hex'
p889
sS'path'
p890
S'atmega'
p891
sS'unlock_bits'
p892
S'0x3F'
p893
ssS'upload'
p894
(dp895
S'protocol'
p896
S'arduino'
p897
sS'maximum_size'
p898
S'30720'
p899
sS'speed'
p900
S'57600'
p901
ssS'build'
p902
(dp903
S'core'
p904
S'arduino'
p905
sS'mcu'
p906
S'atmega328p'
p907
sS'cppoption1'
p908
S'-fno-use-cxa-atexit'
p909
sS'f_cpu'
p910
S'16000000L'
p911
sS'variant'
p912
S'standard'
p913
ssS'name'
p914
S'Arduino Pro or Pro Mini (5V, 16 MHz) w/ ATmega328'
p915
saa(lp916
S'pro5v'
p917
a(dp918
S'bootloader'
p919
(dp920
S'extended_fuses'
p921
S'0x00'
p922
sS'high_fuses'
p923
S'0xdd'
p924
sS'low_fuses'
p925
S'0xff'
p926
sS'lock_bits'
p927
S'0x0F'
p928
sS'file'
p929
S'ATmegaBOOT_168_diecimila.hex'
p930
sS'path'
p931
S'atmega'
p932
sS'unlock_bits'
p933
S'0x3F'
p934
ssS'upload'
p935
(dp936
S'protocol'
p937
S'arduino'
p938
sS'maximum_size'
p939
S'14336'
p940
sS'speed'
p941
S'19200'
p942
ssS'build'
p943
(dp944
S'core'
p945
S'arduino'
p946
sS'mcu'
p947
S'atmega168'
p948
sS'cppoption1'
p949
S'-fno-use-cxa-atexit'
p950
sS'f_cpu'
p951
S'16000000L'
p952
sS'variant'
p953
S'standard'
p954
ssS'name'
p955
S'Arduino Pro or Pro Mini (5V, 16 MHz) w/ ATmega168'
p956
saa(lp957
S'pro328'
p958
a(dp959
S'bootloader'
p960
(dp961
S'extended_fuses'
p962
S'0x05'
p963
sS'high_fuses'
p964
S'0xDA'
p965
sS'low_fuses'
p966
S'0xFF'
p967
sS'lock_bits'
p968
S'0x0F'
p969
sS'file'
p970
S'ATmegaBOOT_168_atmega328_pro_8MHz.hex'
p971
sS'path'
p972
S'atmega'
p973
sS'unlock_bits'
p974
S'0x3F'
p975
ssS'upload'
p976
(dp977
S'protocol'
p978
S'arduino'
p979
sS'maximum_size'
p980
S'30720'
p981
sS'speed'
p982
S'57600'
p983
ssS'build'
p984
(dp985
S'core'
p986
S'arduino'
p987
sS'mcu'
p988
S'atmega328p'
p989
sS'cppoption1'
p990
S'-fno-use-cxa-atexit'
p991
sS'f_cpu'
p992
S'8000000L'
p993
sS'variant'
p994
S'standard'
p995
ssS'name'
p996
S'Arduino Pro or Pro Mini (3.3V, 8 MHz) w/ ATmega328'
p997
saa(lp998
S'pro'
p999
a(dp1000
S'bootloader'
p1001
(dp1002
S'extended_fuses'
p1003
S'0x00'
p1004
sS'high_fuses'
p1005
S'0xdd'
p1006
sS'low_fuses'
p1007
S'0xc6'
p1008
sS'lock_bits'
p1009
S'0x0F'
p1010
sS'file'
p1011
S'ATmegaBOOT_168_pro_8MHz.hex'
p1012
sS'path'
p1013
S'atmega'
p1014
sS'unlock_bits'
p1015
S'0x3F'
p1016
ssS'upload'
p1017
(dp1018
S'protocol'
p1019
S'arduino'
p1020
sS'maximum_size'
p1021
S'14336'
p1022
sS'speed'
p1023
S'19200'
p1024
ssS'build'
p1025
(dp1026
S'core'
p1027
S'arduino'
p1028
sS'mcu'
p1029
S'atmega168'
p1030
sS'cppoption1'
p1031
S'-fno-use-cxa-atexit'
p1032
sS'f_cpu'
p1033
S'8000000L'
p1034
sS'variant'
p1035
S'standard'
p1036
ssS'name'
p1037
S'Arduino Pro or Pro Mini (3.3V, 8 MHz) w/ ATmega168'
p1038
saa(lp1039
S'atmega168'
p1040
a(dp1041
S'bootloader'
p1042
(dp1043
S'extended_fuses'
p1044
S'0x00'
p1045
sS'high_fuses'
p1046
S'0xdd'
p1047
sS'low_fuses'
p1048
S'0xff'
p1049
sS'lock_bits'
p1050
S'0x0F'
p1051
sS'file'
p1052
S'ATmegaBOOT_168_ng.hex'
p1053
sS'path'
p1054
S'atmega'
p1055
sS'unlock_bits'
p1056
S'0x3F'
p1057
ssS'upload'
p1058
(dp1059
S'protocol'
p1060
S'arduino'
p1061
sS'maximum_size'
p1062
S'14336'
p1063
sS'speed'
p1064
S'19200'
p1065
ssS'build'
p1066
(dp1067
S'core'
p1068
S'arduino'
p1069
sS'mcu'
p1070
S'atmega168'
p1071
sS'cppoption1'
p1072
S'-fno-use-cxa-atexit'
p1073
sS'f_cpu'
p1074
S'16000000L'
p1075
sS'variant'
p1076
S'standard'
p1077
ssS'name'
p1078
S'Arduino NG or older w/ ATmega168'
p1079
saa(lp1080
S'atmega8'
p1081
a(dp1082
S'bootloader'
p1083
(dp1084
S'high_fuses'
p1085
S'0xca'
p1086
sS'low_fuses'
p1087
S'0xdf'
p1088
sS'lock_bits'
p1089
S'0x0F'
p1090
sS'file'
p1091
S'ATmegaBOOT-prod-firmware-2009-11-07.hex'
p1092
sS'path'
p1093
S'atmega8'
p1094
sS'unlock_bits'
p1095
S'0x3F'
p1096
ssS'upload'
p1097
(dp1098
S'protocol'
p1099
S'arduino'
p1100
sS'maximum_size'
p1101
S'7168'
p1102
sS'speed'
p1103
S'19200'
p1104
ssS'build'
p1105
(dp1106
S'core'
p1107
S'arduino'
p1108
sS'mcu'
p1109
S'atmega8'
p1110
sS'cppoption1'
p1111
S'-fno-use-cxa-atexit'
p1112
sS'f_cpu'
p1113
S'16000000L'
p1114
sS'variant'
p1115
S'standard'
p1116
ssS'name'
p1117
S'Arduino NG or older w/ ATmega8'
p1118
saa(lp1119
S'robotControl'
p1120
a(dp1121
S'bootloader'
p1122
(dp1123
S'extended_fuses'
p1124
S'0xcb'
p1125
sS'high_fuses'
p1126
S'0xd8'
p1127
sS'low_fuses'
p1128
S'0xff'
p1129
sS'lock_bits'
p1130
S'0x2F'
p1131
sS'file'
p1132
S'Caterina-Robot-Control.hex'
p1133
sS'path'
p1134
S'caterina-Arduino_Robot'
p1135
sS'unlock_bits'
p1136
S'0x3F'
p1137
ssS'upload'
p1138
(dp1139
S'protocol'
p1140
S'avr109'
p1141
sS'maximum_size'
p1142
S'28672'
p1143
sS'speed'
p1144
S'57600'
p1145
sS'disable_flushing'
p1146
S'true'
p1147
ssS'build'
p1148
(dp1149
S'core'
p1150
S'robot'
p1151
sS'f_cpu'
p1152
S'16000000L'
p1153
sS'vid'
p1154
S'0x2341'
p1155
sS'pid'
p1156
S'0x8038'
p1157
sS'cppoption1'
p1158
S'-fno-use-cxa-atexit'
p1159
sS'variant'
p1160
S'robot_control'
p1161
sS'mcu'
p1162
S'atmega32u4'
p1163
ssS'name'
p1164
S'Arduino Robot Control'
p1165
saa(lp1166
S'robotMotor'
p1167
a(dp1168
S'bootloader'
p1169
(dp1170
S'extended_fuses'
p1171
S'0xcb'
p1172
sS'high_fuses'
p1173
S'0xd8'
p1174
sS'low_fuses'
p1175
S'0xff'
p1176
sS'lock_bits'
p1177
S'0x2F'
p1178
sS'file'
p1179
S'Caterina-Robot-Motor.hex'
p1180
sS'path'
p1181
S'caterina-Arduino_Robot'
p1182
sS'unlock_bits'
p1183
S'0x3F'
p1184
ssS'upload'
p1185
(dp1186
S'protocol'
p1187
S'avr109'
p1188
sS'maximum_size'
p1189
S'28672'
p1190
sS'speed'
p1191
S'57600'
p1192
sS'disable_flushing'
p1193
S'true'
p1194
ssS'build'
p1195
(dp1196
S'core'
p1197
S'robot'
p1198
sS'f_cpu'
p1199
S'16000000L'
p1200
sS'vid'
p1201
S'0x2341'
p1202
sS'pid'
p1203
S'0x8039'
p1204
sS'cppoption1'
p1205
S'-fno-use-cxa-atexit'
p1206
sS'variant'
p1207
S'robot_motor'
p1208
sS'mcu'
p1209
S'atmega32u4'
p1210
ssS'name'
p1211
S'Arduino Robot Motor'
p1212
saatp1213
Rp1214
(dp1215
S'default'
p1216
S'uno'
p1217
sbtp1218
a(S'used_libs'
p1219
(lp1220
S'/usr/share/arduino/libraries/Servo'
p1221
aS'/usr/share/arduino/libraries/EEPROM'
p1222
aS'/usr/share/arduino/libraries/LiquidCrystal'
p1223
aS'lib/DHT22'
p1224
aS'/usr/share/arduino/hardware/arduino/cores/arduino'
p1225
atp1226
a(S'make'
p1227
S'/usr/bin/make'
p1228
tp1229
a(S'arduino_libraries_dir'
p1230
S'/usr/share/arduino/libraries'
p1231
tp1232
a(S'cc'
p1233
S'/usr/bin/avr-gcc'
p1234
tp1235
a(S'cflags'
p1236
g2
(g3
g4
(lp1237
tp1238
Rp1239
tp1240
a(S'cxxflags'
p1241
g2
(g3
g4
(lp1242
S'-fno-exceptions'
p1243
atp1244
Rp1245
tp1246
a(S'arduino_variants_dir'
p1247
S'/usr/share/arduino/hardware/arduino/variants'
p1248
tp1249
a(S'serial'
p1250
S'/usr/bin/picocom'
p1251
tp1252
a(S'stty'
p1253
S'/usr/bin/stty'
p1254
tp1255
a(S'version.txt'
p1256
S'/usr/share/arduino/lib/version.txt'
p1257
tp1258
a(S'arduino_core_dir'
p1259
g1225
tp1260
a(S'boards.txt'
p1261
S'/usr/share/arduino/hardware/arduino/boards.txt'
p1262
tp1263
a(S'avrdude.conf'
p1264
S'/etc/avrdude/avrdude.conf'
p1265
tp1266
a(S'deps'
p1267
g2
(g3
g4
(lp1268
S'.build/uno/src/dependencies.d'
p1269
aS'.build/uno/arduino/dependencies.d'
p1270
aS'.build/uno/Servo/dependencies.d'
p1271
aS'.build/uno/LiquidCrystal/dependencies.d'
p1272
aS'.build/uno/EEPROM/dependencies.d'
p1273
aS'.build/uno/DHT22/dependencies.d'
p1274
atp1275
Rp1276
tp1277
a.